target datalayout = "e-m:e-p270:32:32-p271:32:32-p272:64:64-i64:64-i128:128-f80:128-n8:16:32:64-S128"
target triple = "x86_64-unknown-linux-gnu"

%struct.HistogramDistance = type { [544 x i32], i64, double }

; Function Attrs: nounwind uwtable
define hidden double @BrotliHistogramBitCostDistanceDistance(ptr noundef %histogram, ptr noundef %candidate, ptr noundef %tmp) #0 {
entry:
  %self.addr.i = alloca ptr, align 8
  %v.addr.i = alloca ptr, align 8
  %i.i = alloca i64, align 8
  %retval = alloca double, align 8
  %histogram.addr = alloca ptr, align 8
  %candidate.addr = alloca ptr, align 8
  %tmp.addr = alloca ptr, align 8
  store ptr %histogram, ptr %histogram.addr, align 8
  store ptr %candidate, ptr %candidate.addr, align 8
  store ptr %tmp, ptr %tmp.addr, align 8
  %0 = load ptr, ptr %histogram.addr, align 8
  %total_count_ = getelementptr inbounds %struct.HistogramDistance, ptr %0, i32 0, i32 1
  %1 = load i64, ptr %total_count_, align 8
  %cmp = icmp eq i64 %1, 0
  br i1 %cmp, label %if.then, label %if.else

if.then:                                          ; preds = %entry
  store double 0.000000e+00, ptr %retval, align 8
  br label %return

if.else:                                          ; preds = %entry
  %2 = load ptr, ptr %tmp.addr, align 8
  %3 = load ptr, ptr %histogram.addr, align 8
  call void @llvm.memcpy.p0.p0.i64(ptr align 8 %2, ptr align 8 %3, i64 2192, i1 false)
  %4 = load ptr, ptr %tmp.addr, align 8
  %5 = load ptr, ptr %candidate.addr, align 8
  store ptr %4, ptr %self.addr.i, align 8
  store ptr %5, ptr %v.addr.i, align 8
  %6 = load ptr, ptr %v.addr.i, align 8
  %total_count_.i = getelementptr inbounds %struct.HistogramDistance, ptr %6, i32 0, i32 1
  %7 = load i64, ptr %total_count_.i, align 8
  %8 = load ptr, ptr %self.addr.i, align 8
  %total_count_1.i = getelementptr inbounds %struct.HistogramDistance, ptr %8, i32 0, i32 1
  %9 = load i64, ptr %total_count_1.i, align 8
  %add.i = add i64 %9, %7
  store i64 %add.i, ptr %total_count_1.i, align 8
  store i64 0, ptr %i.i, align 8
  br label %for.cond.i

for.cond.i:                                       ; preds = %for.body.i, %if.else
  %10 = load i64, ptr %i.i, align 8
  %cmp.i = icmp ult i64 %10, 544
  br i1 %cmp.i, label %for.body.i, label %HistogramAddHistogramDistance.exit

for.body.i:                                       ; preds = %for.cond.i
  %11 = load ptr, ptr %v.addr.i, align 8
  %12 = load i64, ptr %i.i, align 8
  %arrayidx.i = getelementptr inbounds [544 x i32], ptr %11, i64 0, i64 %12
  %13 = load i32, ptr %arrayidx.i, align 4
  %14 = load ptr, ptr %self.addr.i, align 8
  %15 = load i64, ptr %i.i, align 8
  %arrayidx3.i = getelementptr inbounds [544 x i32], ptr %14, i64 0, i64 %15
  %16 = load i32, ptr %arrayidx3.i, align 4
  %add4.i = add i32 %16, %13
  store i32 %add4.i, ptr %arrayidx3.i, align 4
  %17 = load i64, ptr %i.i, align 8
  %inc.i = add i64 %17, 1
  store i64 %inc.i, ptr %i.i, align 8
  br label %for.cond.i, !llvm.loop !47

HistogramAddHistogramDistance.exit:               ; preds = %for.cond.i
  %18 = load ptr, ptr %tmp.addr, align 8
  %call = call double @BrotliPopulationCostDistance(ptr noundef %18)
  %19 = load ptr, ptr %candidate.addr, align 8
  %bit_cost_ = getelementptr inbounds %struct.HistogramDistance, ptr %19, i32 0, i32 2
  %20 = load double, ptr %bit_cost_, align 8
  %sub = fsub double %call, %20
  store double %sub, ptr %retval, align 8
  br label %return

return:                                           ; preds = %HistogramAddHistogramDistance.exit, %if.then
  %21 = load double, ptr %retval, align 8
  ret double %21
}